; Function Attrs: mustprogress uwtable
define hidden void @_ZN5arith6solver14reserve_boundsEi(ptr noundef nonnull align 8 dereferenceable(1144) %this, i32 noundef %v) local_unnamed_addr #3 align 2 personality ptr @__gxx_personality_v0 {
entry:
  %ref.tmp = alloca %class.ptr_vector.36, align 8
  %m_bounds = getelementptr inbounds i8, ptr %this, i64 424
  %m_unassigned_bounds = getelementptr inbounds i8, ptr %this, i64 432
  br label %while.cond

while.cond:                                       ; preds = %_ZN6vectorIjLb0EjE9push_backEOj.exit, %entry
  %0 = load ptr, ptr %m_bounds, align 8
  %cmp.i = icmp eq ptr %0, null
  br i1 %cmp.i, label %while.body.thread, label %_ZNK6vectorI10ptr_vectorIN6lp_api5boundIN3sat7literalEEEELb1EjE4sizeEv.exit

while.body.thread:                                ; preds = %while.cond
  store ptr null, ptr %ref.tmp, align 8
  br label %if.then.i

_ZNK6vectorI10ptr_vectorIN6lp_api5boundIN3sat7literalEEEELb1EjE4sizeEv.exit: ; preds = %while.cond
  %arrayidx.i = getelementptr inbounds i8, ptr %0, i64 -4
  %1 = load i32, ptr %arrayidx.i, align 4
  %cmp.not = icmp ugt i32 %1, %v
  br i1 %cmp.not, label %while.end, label %lor.lhs.false.i

lor.lhs.false.i:                                  ; preds = %_ZNK6vectorI10ptr_vectorIN6lp_api5boundIN3sat7literalEEEELb1EjE4sizeEv.exit
  store ptr null, ptr %ref.tmp, align 8
  %arrayidx4.i = getelementptr inbounds i8, ptr %0, i64 -8
  %2 = load i32, ptr %arrayidx4.i, align 4
  %cmp5.i = icmp eq i32 %1, %2
  br i1 %cmp5.i, label %if.then.i, label %_ZN10ptr_vectorIN6lp_api5boundIN3sat7literalEEEED2Ev.exit

if.then.i:                                        ; preds = %while.body.thread, %lor.lhs.false.i
  invoke void @_ZN6vectorI10ptr_vectorIN6lp_api5boundIN3sat7literalEEEELb1EjE13expand_vectorEv(ptr noundef nonnull align 8 dereferenceable(8) %m_bounds)
          to label %.noexc unwind label %lpad

.noexc:                                           ; preds = %if.then.i
  %.pre.i = load ptr, ptr %m_bounds, align 8
  %arrayidx8.phi.trans.insert.i = getelementptr inbounds i8, ptr %.pre.i, i64 -4
  %.pre1.i = load i32, ptr %arrayidx8.phi.trans.insert.i, align 4
  br label %_ZN10ptr_vectorIN6lp_api5boundIN3sat7literalEEEED2Ev.exit

_ZN10ptr_vectorIN6lp_api5boundIN3sat7literalEEEED2Ev.exit: ; preds = %.noexc, %lor.lhs.false.i
  %3 = phi i32 [ %.pre1.i, %.noexc ], [ %1, %lor.lhs.false.i ]
  %4 = phi ptr [ %.pre.i, %.noexc ], [ %0, %lor.lhs.false.i ]
  %idx.ext.i = zext i32 %3 to i64
  %add.ptr.i = getelementptr inbounds %class.ptr_vector.36, ptr %4, i64 %idx.ext.i
  store ptr null, ptr %add.ptr.i, align 8
  store ptr null, ptr %ref.tmp, align 8
  %5 = load ptr, ptr %m_bounds, align 8
  %arrayidx10.i = getelementptr inbounds i8, ptr %5, i64 -4
  %6 = load i32, ptr %arrayidx10.i, align 4
  %inc.i = add i32 %6, 1
  store i32 %inc.i, ptr %arrayidx10.i, align 4
  %.pre = load ptr, ptr %m_unassigned_bounds, align 8
  %cmp.i4 = icmp eq ptr %.pre, null
  br i1 %cmp.i4, label %if.then.i14, label %lor.lhs.false.i5

lor.lhs.false.i5:                                 ; preds = %_ZN10ptr_vectorIN6lp_api5boundIN3sat7literalEEEED2Ev.exit
  %arrayidx.i6 = getelementptr inbounds i8, ptr %.pre, i64 -4
  %7 = load i32, ptr %arrayidx.i6, align 4
  %arrayidx4.i7 = getelementptr inbounds i8, ptr %.pre, i64 -8
  %8 = load i32, ptr %arrayidx4.i7, align 4
  %cmp5.i8 = icmp eq i32 %7, %8
  br i1 %cmp5.i8, label %if.then.i14, label %_ZN6vectorIjLb0EjE9push_backEOj.exit

if.then.i14:                                      ; preds = %lor.lhs.false.i5, %_ZN10ptr_vectorIN6lp_api5boundIN3sat7literalEEEED2Ev.exit
  tail call void @_ZN6vectorIjLb0EjE13expand_vectorEv(ptr noundef nonnull align 8 dereferenceable(8) %m_unassigned_bounds)
  %.pre.i15 = load ptr, ptr %m_unassigned_bounds, align 8
  %arrayidx8.phi.trans.insert.i16 = getelementptr inbounds i8, ptr %.pre.i15, i64 -4
  %.pre1.i17 = load i32, ptr %arrayidx8.phi.trans.insert.i16, align 4
  br label %_ZN6vectorIjLb0EjE9push_backEOj.exit

_ZN6vectorIjLb0EjE9push_backEOj.exit:             ; preds = %lor.lhs.false.i5, %if.then.i14
  %9 = phi i32 [ %.pre1.i17, %if.then.i14 ], [ %7, %lor.lhs.false.i5 ]
  %10 = phi ptr [ %.pre.i15, %if.then.i14 ], [ %.pre, %lor.lhs.false.i5 ]
  %idx.ext.i10 = zext i32 %9 to i64
  %add.ptr.i11 = getelementptr inbounds i32, ptr %10, i64 %idx.ext.i10
  store i32 0, ptr %add.ptr.i11, align 4
  %11 = load ptr, ptr %m_unassigned_bounds, align 8
  %arrayidx10.i12 = getelementptr inbounds i8, ptr %11, i64 -4
  %12 = load i32, ptr %arrayidx10.i12, align 4
  %inc.i13 = add i32 %12, 1
  store i32 %inc.i13, ptr %arrayidx10.i12, align 4
  br label %while.cond, !llvm.loop !55

lpad:                                             ; preds = %if.then.i
  %13 = landingpad { ptr, i32 }
          cleanup
  call void @_ZN10ptr_vectorIN6lp_api5boundIN3sat7literalEEEED2Ev(ptr noundef nonnull align 8 dereferenceable(8) %ref.tmp) #23
  resume { ptr, i32 } %13

while.end:                                        ; preds = %_ZNK6vectorI10ptr_vectorIN6lp_api5boundIN3sat7literalEEEELb1EjE4sizeEv.exit
  ret void
}